; Function Attrs: mustprogress nofree norecurse nosync nounwind willreturn memory(argmem: write) uwtable
define dso_local void @_ZN24MissingDependencyScannerC2EP32MissingDependencyScannerDelegateP7DepsLogP5StateP13DiskInterface(ptr noundef nonnull align 8 dereferenceable(288) %0, ptr noundef %1, ptr noundef %2, ptr noundef %3, ptr noundef %4) unnamed_addr #7 align 2 personality ptr @__gxx_personality_v0 {
  store ptr %1, ptr %0, align 8
  %6 = getelementptr inbounds i8, ptr %0, i64 8
  store ptr %2, ptr %6, align 8
  %7 = getelementptr inbounds i8, ptr %0, i64 16
  store ptr %3, ptr %7, align 8
  %8 = getelementptr inbounds i8, ptr %0, i64 24
  store ptr %4, ptr %8, align 8
  %9 = getelementptr inbounds i8, ptr %0, i64 40
  store i32 0, ptr %9, align 8
  %10 = getelementptr inbounds i8, ptr %0, i64 48
  store ptr null, ptr %10, align 8
  %11 = getelementptr inbounds i8, ptr %0, i64 56
  store ptr %9, ptr %11, align 8
  %12 = getelementptr inbounds i8, ptr %0, i64 64
  store ptr %9, ptr %12, align 8
  %13 = getelementptr inbounds i8, ptr %0, i64 72
  store i64 0, ptr %13, align 8
  %14 = getelementptr inbounds i8, ptr %0, i64 88
  store i32 0, ptr %14, align 8
  %15 = getelementptr inbounds i8, ptr %0, i64 96
  store ptr null, ptr %15, align 8
  %16 = getelementptr inbounds i8, ptr %0, i64 104
  store ptr %14, ptr %16, align 8
  %17 = getelementptr inbounds i8, ptr %0, i64 112
  store ptr %14, ptr %17, align 8
  %18 = getelementptr inbounds i8, ptr %0, i64 120
  store i64 0, ptr %18, align 8
  %19 = getelementptr inbounds i8, ptr %0, i64 136
  store i32 0, ptr %19, align 8
  %20 = getelementptr inbounds i8, ptr %0, i64 144
  store ptr null, ptr %20, align 8
  %21 = getelementptr inbounds i8, ptr %0, i64 152
  store ptr %19, ptr %21, align 8
  %22 = getelementptr inbounds i8, ptr %0, i64 160
  store ptr %19, ptr %22, align 8
  %23 = getelementptr inbounds i8, ptr %0, i64 168
  store i64 0, ptr %23, align 8
  %24 = getelementptr inbounds i8, ptr %0, i64 184
  store i32 0, ptr %24, align 8
  %25 = getelementptr inbounds i8, ptr %0, i64 192
  store ptr null, ptr %25, align 8
  %26 = getelementptr inbounds i8, ptr %0, i64 200
  store ptr %24, ptr %26, align 8
  %27 = getelementptr inbounds i8, ptr %0, i64 208
  store ptr %24, ptr %27, align 8
  %28 = getelementptr inbounds i8, ptr %0, i64 216
  store i64 0, ptr %28, align 8
  %29 = getelementptr inbounds i8, ptr %0, i64 224
  store i32 0, ptr %29, align 8
  %30 = getelementptr inbounds i8, ptr %0, i64 232
  %31 = getelementptr inbounds i8, ptr %0, i64 280
  store ptr %31, ptr %30, align 8
  %32 = getelementptr inbounds i8, ptr %0, i64 240
  store i64 1, ptr %32, align 8
  %33 = getelementptr inbounds i8, ptr %0, i64 248
  %34 = getelementptr inbounds i8, ptr %0, i64 264
  tail call void @llvm.memset.p0.i64(ptr noundef nonnull align 8 dereferenceable(16) %33, i8 0, i64 16, i1 false)
  store float 1.000000e+00, ptr %34, align 8
  %35 = getelementptr inbounds i8, ptr %0, i64 272
  tail call void @llvm.memset.p0.i64(ptr noundef nonnull align 8 dereferenceable(16) %35, i8 0, i64 16, i1 false)
  ret void
}